; Function Attrs: mustprogress uwtable
define hidden void @_ZN2cv8colormap8ColorMap15linear_colormapERKNS_11_InputArrayES4_S4_S4_S4_(ptr dead_on_unwind noalias writable sret(%"class.cv::Mat") align 8 %0, ptr noundef nonnull align 8 dereferenceable(24) %1, ptr noundef nonnull align 8 dereferenceable(24) %2, ptr noundef nonnull align 8 dereferenceable(24) %3, ptr noundef nonnull align 8 dereferenceable(24) %4, ptr noundef nonnull align 8 dereferenceable(24) %5) local_unnamed_addr #3 align 2 personality ptr @__gxx_personality_v0 {
  %7 = alloca %"class.cv::Mat", align 8
  %8 = alloca [3 x %"class.cv::Mat"], align 16
  %9 = alloca %"class.cv::_OutputArray", align 8
  %10 = alloca %"class.cv::_OutputArray", align 8
  call void @_ZN2cv3MatC1Ev(ptr noundef nonnull align 8 dereferenceable(96) %7) #17
  call void @_ZN2cv3MatC1Ev(ptr noundef nonnull align 8 dereferenceable(96) %0) #17
  invoke fastcc void @_ZN2cvL7interp1ERKNS_11_InputArrayES2_S2_(ptr dead_on_unwind noalias nonnull writable align 8 %8, ptr noundef nonnull align 8 dereferenceable(24) %1, ptr noundef nonnull align 8 dereferenceable(24) %4, ptr noundef nonnull align 8 dereferenceable(24) %5)
          to label %12 unwind label %.thread

.thread:                                          ; preds = %6
  %11 = landingpad { ptr, i32 }
          cleanup
  br label %.loopexit

12:                                               ; preds = %6
  %13 = getelementptr inbounds i8, ptr %8, i64 96
  invoke fastcc void @_ZN2cvL7interp1ERKNS_11_InputArrayES2_S2_(ptr dead_on_unwind noalias nonnull writable align 8 %13, ptr noundef nonnull align 8 dereferenceable(24) %1, ptr noundef nonnull align 8 dereferenceable(24) %3, ptr noundef nonnull align 8 dereferenceable(24) %5)
          to label %14 unwind label %24

14:                                               ; preds = %12
  %15 = getelementptr inbounds i8, ptr %8, i64 192
  invoke fastcc void @_ZN2cvL7interp1ERKNS_11_InputArrayES2_S2_(ptr dead_on_unwind noalias nonnull writable align 8 %15, ptr noundef nonnull align 8 dereferenceable(24) %1, ptr noundef nonnull align 8 dereferenceable(24) %2, ptr noundef nonnull align 8 dereferenceable(24) %5)
          to label %16 unwind label %24

16:                                               ; preds = %14
  %17 = getelementptr inbounds i8, ptr %9, i64 8
  %18 = getelementptr inbounds i8, ptr %9, i64 16
  store i64 0, ptr %18, align 8
  store i32 33619968, ptr %9, align 8
  store ptr %7, ptr %17, align 8
  invoke void @_ZN2cv5mergeEPKNS_3MatEmRKNS_12_OutputArrayE(ptr noundef nonnull %8, i64 noundef 3, ptr noundef nonnull align 8 dereferenceable(24) %9)
          to label %19 unwind label %30

19:                                               ; preds = %16
  %20 = getelementptr inbounds i8, ptr %10, i64 8
  %21 = getelementptr inbounds i8, ptr %10, i64 16
  store i64 0, ptr %21, align 8
  store i32 33619968, ptr %10, align 8
  store ptr %0, ptr %20, align 8
  invoke void @_ZNK2cv3Mat9convertToERKNS_12_OutputArrayEidd(ptr noundef nonnull align 8 dereferenceable(96) %7, ptr noundef nonnull align 8 dereferenceable(24) %10, i32 noundef 0, double noundef 2.550000e+02, double noundef 0.000000e+00)
          to label %22 unwind label %32

22:                                               ; preds = %19
  %23 = getelementptr inbounds i8, ptr %8, i64 288
  br label %34

24:                                               ; preds = %14, %12
  %.014 = phi ptr [ %15, %14 ], [ %13, %12 ]
  %25 = landingpad { ptr, i32 }
          cleanup
  br label %26

26:                                               ; preds = %24, %26
  %27 = phi ptr [ %.014, %24 ], [ %28, %26 ]
  %28 = getelementptr inbounds i8, ptr %27, i64 -96
  call void @_ZN2cv3MatD1Ev(ptr noundef nonnull align 8 dereferenceable(96) %28) #17
  %29 = icmp eq ptr %28, %8
  br i1 %29, label %.loopexit, label %26

30:                                               ; preds = %16
  %31 = landingpad { ptr, i32 }
          cleanup
  br label %38

32:                                               ; preds = %19
  %33 = landingpad { ptr, i32 }
          cleanup
  br label %38

34:                                               ; preds = %34, %22
  %35 = phi ptr [ %23, %22 ], [ %36, %34 ]
  %36 = getelementptr inbounds i8, ptr %35, i64 -96
  call void @_ZN2cv3MatD1Ev(ptr noundef nonnull align 8 dereferenceable(96) %36) #17
  %37 = icmp eq ptr %36, %8
  br i1 %37, label %44, label %34

38:                                               ; preds = %32, %30
  %.pn = phi { ptr, i32 } [ %33, %32 ], [ %31, %30 ]
  %39 = getelementptr inbounds i8, ptr %8, i64 288
  br label %40

40:                                               ; preds = %40, %38
  %41 = phi ptr [ %39, %38 ], [ %42, %40 ]
  %42 = getelementptr inbounds i8, ptr %41, i64 -96
  call void @_ZN2cv3MatD1Ev(ptr noundef nonnull align 8 dereferenceable(96) %42) #17
  %43 = icmp eq ptr %42, %8
  br i1 %43, label %.loopexit, label %40

44:                                               ; preds = %34
  call void @_ZN2cv3MatD1Ev(ptr noundef nonnull align 8 dereferenceable(96) %7) #17
  ret void

.loopexit:                                        ; preds = %26, %40, %.thread
  %.pn.pn = phi { ptr, i32 } [ %11, %.thread ], [ %.pn, %40 ], [ %25, %26 ]
  call void @_ZN2cv3MatD1Ev(ptr noundef nonnull align 8 dereferenceable(96) %0) #17
  call void @_ZN2cv3MatD1Ev(ptr noundef nonnull align 8 dereferenceable(96) %7) #17
  resume { ptr, i32 } %.pn.pn
}